target datalayout = "e-m:e-p270:32:32-p271:32:32-p272:64:64-i64:64-i128:128-f80:128-n8:16:32:64-S128"
target triple = "x86_64-pc-linux-gnu"

%struct.hashEntry = type { ptr, ptr }
%struct.DdNode = type { i32, i32, ptr, %union.anon, i64 }
%union.anon = type { %struct.DdChildren }
%struct.DdChildren = type { ptr, ptr }
%struct.DdManager = type { %struct.DdNode, ptr, ptr, ptr, ptr, ptr, ptr, ptr, i32, i32, double, double, double, i32, i32, i32, i32, i32, i32, ptr, ptr, %struct.DdSubtable, i32, i32, i32, i32, i32, i32, i32, double, i32, i32, i32, ptr, i64, double, i32, ptr, ptr, ptr, ptr, ptr, ptr, ptr, i32, ptr, ptr, ptr, ptr, ptr, ptr, i32, i32, i32, double, i32, i32, i32, i32, double, double, i32, i32, i32, i32, i32, i32, i32, i32, i32, ptr, ptr, i32, i32, i32, i32, i32, i32, ptr, ptr, ptr, ptr, ptr, ptr, ptr, ptr, i32, i64, i64, i64, i32, i64, i64, double, double, double, double, double, double, i32, ptr, ptr, i64 }
%struct.DdSubtable = type { ptr, i32, i32, i32, i32, i32, i32, i32, i32, i32, i32, i32 }

; Function Attrs: nounwind uwtable
define internal double @bddCorrelationAux(ptr noundef %0, ptr noundef %1, ptr noundef %2, ptr noundef %3) #0 {
  %5 = alloca double, align 8
  %6 = alloca ptr, align 8
  %7 = alloca ptr, align 8
  %8 = alloca ptr, align 8
  %9 = alloca ptr, align 8
  %10 = alloca ptr, align 8
  %11 = alloca ptr, align 8
  %12 = alloca ptr, align 8
  %13 = alloca ptr, align 8
  %14 = alloca ptr, align 8
  %15 = alloca double, align 8
  %16 = alloca ptr, align 8
  %17 = alloca double, align 8
  %18 = alloca double, align 8
  %19 = alloca ptr, align 8
  %20 = alloca ptr, align 8
  %21 = alloca i32, align 4
  %22 = alloca i32, align 4
  %23 = alloca ptr, align 8
  store ptr %0, ptr %6, align 8
  store ptr %1, ptr %7, align 8
  store ptr %2, ptr %8, align 8
  store ptr %3, ptr %9, align 8
  %24 = load ptr, ptr %7, align 8
  %25 = load ptr, ptr %8, align 8
  %26 = icmp eq ptr %24, %25
  br i1 %26, label %27, label %28

27:                                               ; preds = %4
  store double 1.000000e+00, ptr %5, align 8
  br label %263

28:                                               ; preds = %4
  %29 = load ptr, ptr %7, align 8
  %30 = load ptr, ptr %8, align 8
  %31 = ptrtoint ptr %30 to i64
  %32 = xor i64 %31, 1
  %33 = inttoptr i64 %32 to ptr
  %34 = icmp eq ptr %29, %33
  br i1 %34, label %35, label %36

35:                                               ; preds = %28
  store double 0.000000e+00, ptr %5, align 8
  br label %263

36:                                               ; preds = %28
  %37 = load ptr, ptr %7, align 8
  %38 = ptrtoint ptr %37 to i64
  %39 = and i64 %38, -2
  %40 = inttoptr i64 %39 to ptr
  %41 = getelementptr inbounds %struct.DdNode, ptr %40, i32 0, i32 4
  %42 = load i64, ptr %41, align 8
  %43 = shl i64 %42, 1
  %44 = load ptr, ptr %7, align 8
  %45 = ptrtoint ptr %44 to i64
  %46 = and i64 %45, 1
  %47 = trunc i64 %46 to i32
  %48 = sext i32 %47 to i64
  %49 = or i64 %43, %48
  %50 = load ptr, ptr %8, align 8
  %51 = ptrtoint ptr %50 to i64
  %52 = and i64 %51, -2
  %53 = inttoptr i64 %52 to ptr
  %54 = getelementptr inbounds %struct.DdNode, ptr %53, i32 0, i32 4
  %55 = load i64, ptr %54, align 8
  %56 = shl i64 %55, 1
  %57 = load ptr, ptr %8, align 8
  %58 = ptrtoint ptr %57 to i64
  %59 = and i64 %58, 1
  %60 = trunc i64 %59 to i32
  %61 = sext i32 %60 to i64
  %62 = or i64 %56, %61
  %63 = icmp sgt i64 %49, %62
  br i1 %63, label %64, label %68

64:                                               ; preds = %36
  %65 = load ptr, ptr %7, align 8
  store ptr %65, ptr %23, align 8
  %66 = load ptr, ptr %8, align 8
  store ptr %66, ptr %7, align 8
  %67 = load ptr, ptr %23, align 8
  store ptr %67, ptr %8, align 8
  br label %68

68:                                               ; preds = %64, %36
  %69 = load ptr, ptr %7, align 8
  %70 = ptrtoint ptr %69 to i64
  %71 = and i64 %70, 1
  %72 = trunc i64 %71 to i32
  %73 = icmp ne i32 %72, 0
  br i1 %73, label %74, label %83

74:                                               ; preds = %68
  %75 = load ptr, ptr %7, align 8
  %76 = ptrtoint ptr %75 to i64
  %77 = xor i64 %76, 1
  %78 = inttoptr i64 %77 to ptr
  store ptr %78, ptr %7, align 8
  %79 = load ptr, ptr %8, align 8
  %80 = ptrtoint ptr %79 to i64
  %81 = xor i64 %80, 1
  %82 = inttoptr i64 %81 to ptr
  store ptr %82, ptr %8, align 8
  br label %83

83:                                               ; preds = %74, %68
  %84 = call noalias ptr @malloc(i64 noundef 16) #4
  store ptr %84, ptr %20, align 8
  %85 = load ptr, ptr %20, align 8
  %86 = icmp eq ptr %85, null
  br i1 %86, label %87, label %90

87:                                               ; preds = %83
  %88 = load ptr, ptr %6, align 8
  %89 = getelementptr inbounds %struct.DdManager, ptr %88, i32 0, i32 86
  store i32 1, ptr %89, align 8
  store double -1.000000e+00, ptr %5, align 8
  br label %263

90:                                               ; preds = %83
  %91 = load ptr, ptr %7, align 8
  %92 = load ptr, ptr %20, align 8
  %93 = getelementptr inbounds %struct.hashEntry, ptr %92, i32 0, i32 0
  store ptr %91, ptr %93, align 8
  %94 = load ptr, ptr %8, align 8
  %95 = load ptr, ptr %20, align 8
  %96 = getelementptr inbounds %struct.hashEntry, ptr %95, i32 0, i32 1
  store ptr %94, ptr %96, align 8
  %97 = load ptr, ptr %9, align 8
  %98 = load ptr, ptr %20, align 8
  %99 = call i32 @st__lookup(ptr noundef %97, ptr noundef %98, ptr noundef %19)
  %100 = icmp ne i32 %99, 0
  br i1 %100, label %101, label %111

101:                                              ; preds = %90
  %102 = load ptr, ptr %19, align 8
  %103 = load double, ptr %102, align 8
  store double %103, ptr %15, align 8
  %104 = load ptr, ptr %20, align 8
  %105 = icmp ne ptr %104, null
  br i1 %105, label %106, label %108

106:                                              ; preds = %101
  %107 = load ptr, ptr %20, align 8
  call void @free(ptr noundef %107) #5
  store ptr null, ptr %20, align 8
  br label %109

108:                                              ; preds = %101
  br label %109

109:                                              ; preds = %108, %106
  %110 = load double, ptr %15, align 8
  store double %110, ptr %5, align 8
  br label %263

111:                                              ; preds = %90
  %112 = load ptr, ptr %8, align 8
  %113 = ptrtoint ptr %112 to i64
  %114 = and i64 %113, -2
  %115 = inttoptr i64 %114 to ptr
  store ptr %115, ptr %12, align 8
  %116 = load ptr, ptr %7, align 8
  %117 = getelementptr inbounds %struct.DdNode, ptr %116, i32 0, i32 0
  %118 = load i32, ptr %117, align 8
  %119 = icmp eq i32 %118, 2147483647
  br i1 %119, label %120, label %124

120:                                              ; preds = %111
  %121 = load ptr, ptr %7, align 8
  %122 = getelementptr inbounds %struct.DdNode, ptr %121, i32 0, i32 0
  %123 = load i32, ptr %122, align 8
  br label %134

124:                                              ; preds = %111
  %125 = load ptr, ptr %6, align 8
  %126 = getelementptr inbounds %struct.DdManager, ptr %125, i32 0, i32 37
  %127 = load ptr, ptr %126, align 8
  %128 = load ptr, ptr %7, align 8
  %129 = getelementptr inbounds %struct.DdNode, ptr %128, i32 0, i32 0
  %130 = load i32, ptr %129, align 8
  %131 = zext i32 %130 to i64
  %132 = getelementptr inbounds i32, ptr %127, i64 %131
  %133 = load i32, ptr %132, align 4
  br label %134

134:                                              ; preds = %124, %120
  %135 = phi i32 [ %123, %120 ], [ %133, %124 ]
  store i32 %135, ptr %21, align 4
  %136 = load ptr, ptr %12, align 8
  %137 = getelementptr inbounds %struct.DdNode, ptr %136, i32 0, i32 0
  %138 = load i32, ptr %137, align 8
  %139 = icmp eq i32 %138, 2147483647
  br i1 %139, label %140, label %144

140:                                              ; preds = %134
  %141 = load ptr, ptr %12, align 8
  %142 = getelementptr inbounds %struct.DdNode, ptr %141, i32 0, i32 0
  %143 = load i32, ptr %142, align 8
  br label %154

144:                                              ; preds = %134
  %145 = load ptr, ptr %6, align 8
  %146 = getelementptr inbounds %struct.DdManager, ptr %145, i32 0, i32 37
  %147 = load ptr, ptr %146, align 8
  %148 = load ptr, ptr %12, align 8
  %149 = getelementptr inbounds %struct.DdNode, ptr %148, i32 0, i32 0
  %150 = load i32, ptr %149, align 8
  %151 = zext i32 %150 to i64
  %152 = getelementptr inbounds i32, ptr %147, i64 %151
  %153 = load i32, ptr %152, align 4
  br label %154

154:                                              ; preds = %144, %140
  %155 = phi i32 [ %143, %140 ], [ %153, %144 ]
  store i32 %155, ptr %22, align 4
  %156 = load i32, ptr %21, align 4
  %157 = load i32, ptr %22, align 4
  %158 = icmp ule i32 %156, %157
  br i1 %158, label %159, label %168

159:                                              ; preds = %154
  %160 = load ptr, ptr %7, align 8
  %161 = getelementptr inbounds %struct.DdNode, ptr %160, i32 0, i32 3
  %162 = getelementptr inbounds %struct.DdChildren, ptr %161, i32 0, i32 0
  %163 = load ptr, ptr %162, align 8
  store ptr %163, ptr %10, align 8
  %164 = load ptr, ptr %7, align 8
  %165 = getelementptr inbounds %struct.DdNode, ptr %164, i32 0, i32 3
  %166 = getelementptr inbounds %struct.DdChildren, ptr %165, i32 0, i32 1
  %167 = load ptr, ptr %166, align 8
  store ptr %167, ptr %11, align 8
  br label %170

168:                                              ; preds = %154
  %169 = load ptr, ptr %7, align 8
  store ptr %169, ptr %11, align 8
  store ptr %169, ptr %10, align 8
  br label %170

170:                                              ; preds = %168, %159
  %171 = load i32, ptr %22, align 4
  %172 = load i32, ptr %21, align 4
  %173 = icmp ule i32 %171, %172
  br i1 %173, label %174, label %183

174:                                              ; preds = %170
  %175 = load ptr, ptr %12, align 8
  %176 = getelementptr inbounds %struct.DdNode, ptr %175, i32 0, i32 3
  %177 = getelementptr inbounds %struct.DdChildren, ptr %176, i32 0, i32 0
  %178 = load ptr, ptr %177, align 8
  store ptr %178, ptr %13, align 8
  %179 = load ptr, ptr %12, align 8
  %180 = getelementptr inbounds %struct.DdNode, ptr %179, i32 0, i32 3
  %181 = getelementptr inbounds %struct.DdChildren, ptr %180, i32 0, i32 1
  %182 = load ptr, ptr %181, align 8
  store ptr %182, ptr %14, align 8
  br label %185

183:                                              ; preds = %170
  %184 = load ptr, ptr %12, align 8
  store ptr %184, ptr %14, align 8
  store ptr %184, ptr %13, align 8
  br label %185

185:                                              ; preds = %183, %174
  %186 = load ptr, ptr %8, align 8
  %187 = load ptr, ptr %12, align 8
  %188 = icmp ne ptr %186, %187
  br i1 %188, label %189, label %198

189:                                              ; preds = %185
  %190 = load ptr, ptr %13, align 8
  %191 = ptrtoint ptr %190 to i64
  %192 = xor i64 %191, 1
  %193 = inttoptr i64 %192 to ptr
  store ptr %193, ptr %13, align 8
  %194 = load ptr, ptr %14, align 8
  %195 = ptrtoint ptr %194 to i64
  %196 = xor i64 %195, 1
  %197 = inttoptr i64 %196 to ptr
  store ptr %197, ptr %14, align 8
  br label %198

198:                                              ; preds = %189, %185
  %199 = load ptr, ptr %6, align 8
  %200 = load ptr, ptr %10, align 8
  %201 = load ptr, ptr %13, align 8
  %202 = load ptr, ptr %9, align 8
  %203 = call double @bddCorrelationAux(ptr noundef %199, ptr noundef %200, ptr noundef %201, ptr noundef %202)
  %204 = fdiv double %203, 2.000000e+00
  store double %204, ptr %17, align 8
  %205 = load double, ptr %17, align 8
  %206 = fcmp oeq double %205, -1.000000e+00
  br i1 %206, label %207, label %214

207:                                              ; preds = %198
  %208 = load ptr, ptr %20, align 8
  %209 = icmp ne ptr %208, null
  br i1 %209, label %210, label %212

210:                                              ; preds = %207
  %211 = load ptr, ptr %20, align 8
  call void @free(ptr noundef %211) #5
  store ptr null, ptr %20, align 8
  br label %213

212:                                              ; preds = %207
  br label %213

213:                                              ; preds = %212, %210
  store double -1.000000e+00, ptr %5, align 8
  br label %263

214:                                              ; preds = %198
  %215 = load ptr, ptr %6, align 8
  %216 = load ptr, ptr %11, align 8
  %217 = load ptr, ptr %14, align 8
  %218 = load ptr, ptr %9, align 8
  %219 = call double @bddCorrelationAux(ptr noundef %215, ptr noundef %216, ptr noundef %217, ptr noundef %218)
  %220 = fdiv double %219, 2.000000e+00
  store double %220, ptr %18, align 8
  %221 = load double, ptr %18, align 8
  %222 = fcmp oeq double %221, -1.000000e+00
  br i1 %222, label %223, label %230

223:                                              ; preds = %214
  %224 = load ptr, ptr %20, align 8
  %225 = icmp ne ptr %224, null
  br i1 %225, label %226, label %228

226:                                              ; preds = %223
  %227 = load ptr, ptr %20, align 8
  call void @free(ptr noundef %227) #5
  store ptr null, ptr %20, align 8
  br label %229

228:                                              ; preds = %223
  br label %229

229:                                              ; preds = %228, %226
  store double -1.000000e+00, ptr %5, align 8
  br label %263

230:                                              ; preds = %214
  %231 = load double, ptr %17, align 8
  %232 = load double, ptr %18, align 8
  %233 = fadd double %231, %232
  store double %233, ptr %15, align 8
  %234 = call noalias ptr @malloc(i64 noundef 8) #4
  store ptr %234, ptr %16, align 8
  %235 = load ptr, ptr %16, align 8
  %236 = icmp eq ptr %235, null
  br i1 %236, label %237, label %240

237:                                              ; preds = %230
  %238 = load ptr, ptr %6, align 8
  %239 = getelementptr inbounds %struct.DdManager, ptr %238, i32 0, i32 86
  store i32 1, ptr %239, align 8
  store double -1.000000e+00, ptr %5, align 8
  br label %263

240:                                              ; preds = %230
  %241 = load double, ptr %15, align 8
  %242 = load ptr, ptr %16, align 8
  store double %241, ptr %242, align 8
  %243 = load ptr, ptr %9, align 8
  %244 = load ptr, ptr %20, align 8
  %245 = load ptr, ptr %16, align 8
  %246 = call i32 @st__insert(ptr noundef %243, ptr noundef %244, ptr noundef %245)
  %247 = icmp eq i32 %246, -10000
  br i1 %247, label %248, label %261

248:                                              ; preds = %240
  %249 = load ptr, ptr %20, align 8
  %250 = icmp ne ptr %249, null
  br i1 %250, label %251, label %253

251:                                              ; preds = %248
  %252 = load ptr, ptr %20, align 8
  call void @free(ptr noundef %252) #5
  store ptr null, ptr %20, align 8
  br label %254

253:                                              ; preds = %248
  br label %254

254:                                              ; preds = %253, %251
  %255 = load ptr, ptr %16, align 8
  %256 = icmp ne ptr %255, null
  br i1 %256, label %257, label %259

257:                                              ; preds = %254
  %258 = load ptr, ptr %16, align 8
  call void @free(ptr noundef %258) #5
  store ptr null, ptr %16, align 8
  br label %260

259:                                              ; preds = %254
  br label %260

260:                                              ; preds = %259, %257
  store double -1.000000e+00, ptr %5, align 8
  br label %263

261:                                              ; preds = %240
  %262 = load double, ptr %15, align 8
  store double %262, ptr %5, align 8
  br label %263

263:                                              ; preds = %261, %260, %237, %229, %213, %109, %87, %35, %27
  %264 = load double, ptr %5, align 8
  ret double %264
}