; Function Attrs: nounwind uwtable
define internal fastcc double @bddCorrelationAux(ptr noundef %0, ptr noundef %1, ptr noundef %2, ptr noundef nonnull %3) unnamed_addr #0 {
  %5 = alloca ptr, align 8
  %6 = icmp eq ptr %1, %2
  br i1 %6, label %107, label %7

7:                                                ; preds = %4
  %8 = ptrtoint ptr %2 to i64
  %9 = xor i64 %8, 1
  %10 = inttoptr i64 %9 to ptr
  %11 = icmp eq ptr %1, %10
  br i1 %11, label %107, label %12

12:                                               ; preds = %7
  %13 = ptrtoint ptr %1 to i64
  %14 = and i64 %13, -2
  %15 = inttoptr i64 %14 to ptr
  %16 = getelementptr inbounds nuw i8, ptr %15, i64 32
  %17 = load i64, ptr %16, align 8
  %18 = shl i64 %17, 1
  %19 = and i64 %13, 1
  %20 = or disjoint i64 %18, %19
  %21 = and i64 %8, -2
  %22 = inttoptr i64 %21 to ptr
  %23 = getelementptr inbounds nuw i8, ptr %22, i64 32
  %24 = load i64, ptr %23, align 8
  %25 = shl i64 %24, 1
  %26 = and i64 %8, 1
  %27 = or disjoint i64 %25, %26
  %28 = icmp sgt i64 %20, %27
  %spec.select = select i1 %28, ptr %1, ptr %2
  %spec.select99 = select i1 %28, ptr %2, ptr %1
  %29 = ptrtoint ptr %spec.select99 to i64
  %30 = and i64 %29, 1
  %.not = icmp eq i64 %30, 0
  %31 = and i64 %29, -2
  %32 = inttoptr i64 %31 to ptr
  %33 = ptrtoint ptr %spec.select to i64
  %34 = xor i64 %33, 1
  %35 = inttoptr i64 %34 to ptr
  %.178 = select i1 %.not, ptr %spec.select, ptr %35
  %.1 = select i1 %.not, ptr %spec.select99, ptr %32
  %36 = tail call noalias dereferenceable_or_null(16) ptr @malloc(i64 noundef 16) #8
  %37 = icmp eq ptr %36, null
  br i1 %37, label %38, label %40

38:                                               ; preds = %12
  %39 = getelementptr inbounds nuw i8, ptr %0, i64 624
  store i32 1, ptr %39, align 8
  br label %107

40:                                               ; preds = %12
  store ptr %.1, ptr %36, align 8
  %41 = getelementptr inbounds nuw i8, ptr %36, i64 8
  store ptr %.178, ptr %41, align 8
  %42 = call i32 @st__lookup(ptr noundef nonnull %3, ptr noundef nonnull %36, ptr noundef nonnull %5) #7
  %.not95 = icmp eq i32 %42, 0
  br i1 %.not95, label %46, label %43

43:                                               ; preds = %40
  %44 = load ptr, ptr %5, align 8
  %45 = load double, ptr %44, align 8
  call void @free(ptr noundef nonnull %36) #7
  br label %107

46:                                               ; preds = %40
  %47 = ptrtoint ptr %.178 to i64
  %48 = and i64 %47, -2
  %49 = inttoptr i64 %48 to ptr
  %50 = load i32, ptr %.1, align 8
  %51 = icmp eq i32 %50, 2147483647
  br i1 %51, label %58, label %52

52:                                               ; preds = %46
  %53 = getelementptr inbounds nuw i8, ptr %0, i64 312
  %54 = load ptr, ptr %53, align 8
  %55 = zext i32 %50 to i64
  %56 = getelementptr inbounds nuw i32, ptr %54, i64 %55
  %57 = load i32, ptr %56, align 4
  br label %58

58:                                               ; preds = %46, %52
  %59 = phi i32 [ %57, %52 ], [ 2147483647, %46 ]
  %60 = load i32, ptr %49, align 8
  %61 = icmp eq i32 %60, 2147483647
  br i1 %61, label %68, label %62

62:                                               ; preds = %58
  %63 = getelementptr inbounds nuw i8, ptr %0, i64 312
  %64 = load ptr, ptr %63, align 8
  %65 = zext i32 %60 to i64
  %66 = getelementptr inbounds nuw i32, ptr %64, i64 %65
  %67 = load i32, ptr %66, align 4
  br label %68

68:                                               ; preds = %58, %62
  %69 = phi i32 [ %67, %62 ], [ 2147483647, %58 ]
  %.not96 = icmp ugt i32 %59, %69
  br i1 %.not96, label %75, label %70

70:                                               ; preds = %68
  %71 = getelementptr inbounds nuw i8, ptr %.1, i64 16
  %72 = load ptr, ptr %71, align 8
  %73 = getelementptr inbounds nuw i8, ptr %.1, i64 24
  %74 = load ptr, ptr %73, align 8
  br label %75

75:                                               ; preds = %68, %70
  %.080 = phi ptr [ %74, %70 ], [ %.1, %68 ]
  %.079 = phi ptr [ %72, %70 ], [ %.1, %68 ]
  %.not97 = icmp ugt i32 %69, %59
  br i1 %.not97, label %81, label %76

76:                                               ; preds = %75
  %77 = getelementptr inbounds nuw i8, ptr %49, i64 16
  %78 = load ptr, ptr %77, align 8
  %79 = getelementptr inbounds nuw i8, ptr %49, i64 24
  %80 = load ptr, ptr %79, align 8
  br label %81

81:                                               ; preds = %75, %76
  %.083 = phi ptr [ %78, %76 ], [ %49, %75 ]
  %.081 = phi ptr [ %80, %76 ], [ %49, %75 ]
  %.not98 = icmp eq ptr %.178, %49
  %82 = ptrtoint ptr %.083 to i64
  %83 = xor i64 %82, 1
  %84 = inttoptr i64 %83 to ptr
  %.184 = select i1 %.not98, ptr %.083, ptr %84
  %85 = call fastcc double @bddCorrelationAux(ptr noundef %0, ptr noundef %.079, ptr noundef %.184, ptr noundef %3)
  %86 = fmul double %85, 5.000000e-01
  %87 = fcmp oeq double %86, -1.000000e+00
  br i1 %87, label %88, label %89

88:                                               ; preds = %81
  call void @free(ptr noundef nonnull %36) #7
  br label %107

89:                                               ; preds = %81
  %90 = ptrtoint ptr %.081 to i64
  %91 = xor i64 %90, 1
  %92 = inttoptr i64 %91 to ptr
  %.182 = select i1 %.not98, ptr %.081, ptr %92
  %93 = call fastcc double @bddCorrelationAux(ptr noundef %0, ptr noundef %.080, ptr noundef %.182, ptr noundef %3)
  %94 = fmul double %93, 5.000000e-01
  %95 = fcmp oeq double %94, -1.000000e+00
  br i1 %95, label %96, label %97

96:                                               ; preds = %89
  call void @free(ptr noundef nonnull %36) #7
  br label %107

97:                                               ; preds = %89
  %98 = call noalias dereferenceable_or_null(8) ptr @malloc(i64 noundef 8) #8
  %99 = icmp eq ptr %98, null
  br i1 %99, label %100, label %102

100:                                              ; preds = %97
  %101 = getelementptr inbounds nuw i8, ptr %0, i64 624
  store i32 1, ptr %101, align 8
  br label %107

102:                                              ; preds = %97
  %103 = fadd double %86, %94
  store double %103, ptr %98, align 8
  %104 = call i32 @st__insert(ptr noundef nonnull %3, ptr noundef nonnull %36, ptr noundef nonnull %98) #7
  %105 = icmp eq i32 %104, -10000
  br i1 %105, label %106, label %107

106:                                              ; preds = %102
  call void @free(ptr noundef nonnull %36) #7
  call void @free(ptr noundef nonnull %98) #7
  br label %107

107:                                              ; preds = %102, %7, %4, %106, %100, %96, %88, %43, %38
  %.0 = phi double [ -1.000000e+00, %38 ], [ %45, %43 ], [ -1.000000e+00, %88 ], [ -1.000000e+00, %96 ], [ -1.000000e+00, %100 ], [ -1.000000e+00, %106 ], [ 1.000000e+00, %4 ], [ 0.000000e+00, %7 ], [ %103, %102 ]
  ret double %.0
}